; Function Attrs: mustprogress uwtable
define dso_local void @_ZN4pbrt18CheckCallbackScopeC2ESt8functionIFNSt7__cxx1112basic_stringIcSt11char_traitsIcESaIcEEEvEE(ptr nonnull readnone align 1 captures(none) %0, ptr noundef %1) unnamed_addr #3 align 2 {
  %3 = load ptr, ptr getelementptr inbounds nuw (i8, ptr @_ZN4pbrt18CheckCallbackScope9callbacksB5cxx11E, i64 8), align 8, !tbaa !23
  %4 = load ptr, ptr getelementptr inbounds nuw (i8, ptr @_ZN4pbrt18CheckCallbackScope9callbacksB5cxx11E, i64 16), align 8, !tbaa !27
  %.not.i.i = icmp eq ptr %3, %4
  br i1 %.not.i.i, label %16, label %5

5:                                                ; preds = %2
  %6 = getelementptr inbounds nuw i8, ptr %3, i64 24
  %7 = getelementptr inbounds nuw i8, ptr %1, i64 24
  tail call void @llvm.memset.p0.i64(ptr noundef nonnull align 8 dereferenceable(32) %3, i8 0, i64 24, i1 false)
  %8 = load ptr, ptr %7, align 8, !tbaa !44
  store ptr %8, ptr %6, align 8, !tbaa !44
  %9 = getelementptr inbounds nuw i8, ptr %1, i64 16
  %10 = load ptr, ptr %9, align 8, !tbaa !24
  %.not.i.i.not.i.i.i.i.i = icmp eq ptr %10, null
  br i1 %.not.i.i.not.i.i.i.i.i, label %_ZNSt16allocator_traitsISaISt8functionIFNSt7__cxx1112basic_stringIcSt11char_traitsIcESaIcEEEvEEEE9constructIS8_JS8_EEEvRS9_PT_DpOT0_.exit.i.i, label %11

11:                                               ; preds = %5
  %12 = getelementptr inbounds nuw i8, ptr %3, i64 16
  tail call void @llvm.memcpy.p0.p0.i64(ptr noundef nonnull align 8 dereferenceable(32) %3, ptr noundef nonnull align 8 dereferenceable(32) %1, i64 16, i1 false), !tbaa.struct !47
  %13 = load ptr, ptr %9, align 8, !tbaa !24
  store ptr %13, ptr %12, align 8, !tbaa !24
  tail call void @llvm.memset.p0.i64(ptr noundef nonnull align 8 dereferenceable(16) %9, i8 0, i64 16, i1 false)
  br label %_ZNSt16allocator_traitsISaISt8functionIFNSt7__cxx1112basic_stringIcSt11char_traitsIcESaIcEEEvEEEE9constructIS8_JS8_EEEvRS9_PT_DpOT0_.exit.i.i

_ZNSt16allocator_traitsISaISt8functionIFNSt7__cxx1112basic_stringIcSt11char_traitsIcESaIcEEEvEEEE9constructIS8_JS8_EEEvRS9_PT_DpOT0_.exit.i.i: ; preds = %11, %5
  %14 = load ptr, ptr getelementptr inbounds nuw (i8, ptr @_ZN4pbrt18CheckCallbackScope9callbacksB5cxx11E, i64 8), align 8, !tbaa !23
  %15 = getelementptr inbounds nuw i8, ptr %14, i64 32
  store ptr %15, ptr getelementptr inbounds nuw (i8, ptr @_ZN4pbrt18CheckCallbackScope9callbacksB5cxx11E, i64 8), align 8, !tbaa !23
  br label %_ZNSt6vectorISt8functionIFNSt7__cxx1112basic_stringIcSt11char_traitsIcESaIcEEEvEESaIS8_EE9push_backEOS8_.exit

16:                                               ; preds = %2
  tail call void @_ZNSt6vectorISt8functionIFNSt7__cxx1112basic_stringIcSt11char_traitsIcESaIcEEEvEESaIS8_EE17_M_realloc_insertIJS8_EEEvN9__gnu_cxx17__normal_iteratorIPS8_SA_EEDpOT_(ptr noundef nonnull align 8 dereferenceable(24) @_ZN4pbrt18CheckCallbackScope9callbacksB5cxx11E, ptr %3, ptr noundef nonnull align 8 dereferenceable(32) %1)
  br label %_ZNSt6vectorISt8functionIFNSt7__cxx1112basic_stringIcSt11char_traitsIcESaIcEEEvEESaIS8_EE9push_backEOS8_.exit

_ZNSt6vectorISt8functionIFNSt7__cxx1112basic_stringIcSt11char_traitsIcESaIcEEEvEESaIS8_EE9push_backEOS8_.exit: ; preds = %_ZNSt16allocator_traitsISaISt8functionIFNSt7__cxx1112basic_stringIcSt11char_traitsIcESaIcEEEvEEEE9constructIS8_JS8_EEEvRS9_PT_DpOT0_.exit.i.i, %16
  ret void
}